target datalayout = "e-m:e-p270:32:32-p271:32:32-p272:64:64-i64:64-i128:128-f80:128-n8:16:32:64-S128"
target triple = "x86_64-unknown-linux-gnu"

; Function Attrs: mustprogress uwtable
define internal void @_ZN4absl19str_format_internal12_GLOBAL__N_117FormatConvertTestC2Ev(ptr noundef nonnull align 8 dereferenceable(16) %this) unnamed_addr #4 align 2 {
entry:
  %this.addr = alloca ptr, align 8
  store ptr %this, ptr %this.addr, align 8
  %this1 = load ptr, ptr %this.addr, align 8
  call void @_ZN7testing4TestC2Ev(ptr noundef nonnull align 8 dereferenceable(16) %this1)
  store ptr getelementptr inbounds ({ [8 x ptr] }, ptr @_ZTVN4absl19str_format_internal12_GLOBAL__N_117FormatConvertTestE, i32 0, i32 0, i32 2), ptr %this1, align 8
  ret void
}

; Function Attrs: mustprogress uwtable
define internal void @_ZN4absl19str_format_internal12_GLOBAL__N_122TypedFormatConvertTestIyEC2Ev(ptr noundef nonnull align 8 dereferenceable(16) %this) unnamed_addr #4 align 2 {
entry:
  %this.addr = alloca ptr, align 8
  store ptr %this, ptr %this.addr, align 8
  %this1 = load ptr, ptr %this.addr, align 8
  call void @_ZN4absl19str_format_internal12_GLOBAL__N_117FormatConvertTestC2Ev(ptr noundef nonnull align 8 dereferenceable(16) %this1)
  store ptr getelementptr inbounds ({ [8 x ptr] }, ptr @_ZTVN4absl19str_format_internal12_GLOBAL__N_122TypedFormatConvertTestIyEE, i32 0, i32 0, i32 2), ptr %this1, align 8
  ret void
}

; Function Attrs: mustprogress uwtable
define internal void @_ZN4absl19str_format_internal12_GLOBAL__N_135gtest_suite_TypedFormatConvertTest_4CharIyEC2Ev(ptr noundef nonnull align 8 dereferenceable(16) %this) unnamed_addr #4 align 2 {
entry:
  %this.addr = alloca ptr, align 8
  store ptr %this, ptr %this.addr, align 8
  %this1 = load ptr, ptr %this.addr, align 8
  call void @_ZN4absl19str_format_internal12_GLOBAL__N_122TypedFormatConvertTestIyEC2Ev(ptr noundef nonnull align 8 dereferenceable(16) %this1)
  store ptr getelementptr inbounds ({ [8 x ptr] }, ptr @_ZTVN4absl19str_format_internal12_GLOBAL__N_135gtest_suite_TypedFormatConvertTest_4CharIyEE, i32 0, i32 0, i32 2), ptr %this1, align 8
  ret void
}

; Function Attrs: mustprogress uwtable
define internal noundef ptr @_ZN7testing8internal15TestFactoryImplIN4absl19str_format_internal12_GLOBAL__N_135gtest_suite_TypedFormatConvertTest_4CharIyEEE10CreateTestEv(ptr noundef nonnull align 8 dereferenceable(8) %this) unnamed_addr #4 align 2 personality ptr @__gxx_personality_v0 {
entry:
  %this.addr = alloca ptr, align 8
  %exn.slot = alloca ptr, align 8
  %ehselector.slot = alloca i32, align 4
  store ptr %this, ptr %this.addr, align 8
  %call = call noalias noundef nonnull ptr @_Znwm(i64 noundef 16) #21
  invoke void @_ZN4absl19str_format_internal12_GLOBAL__N_135gtest_suite_TypedFormatConvertTest_4CharIyEC2Ev(ptr noundef nonnull align 8 dereferenceable(16) %call)
          to label %invoke.cont unwind label %lpad

invoke.cont:                                      ; preds = %entry
  ret ptr %call

lpad:                                             ; preds = %entry
  %0 = landingpad { ptr, i32 }
          cleanup
  %1 = extractvalue { ptr, i32 } %0, 0
  store ptr %1, ptr %exn.slot, align 8
  %2 = extractvalue { ptr, i32 } %0, 1
  store i32 %2, ptr %ehselector.slot, align 4
  call void @_ZdlPv(ptr noundef %call) #22
  br label %eh.resume

eh.resume:                                        ; preds = %lpad
  %exn = load ptr, ptr %exn.slot, align 8
  %sel = load i32, ptr %ehselector.slot, align 4
  %lpad.val = insertvalue { ptr, i32 } poison, ptr %exn, 0
  %lpad.val2 = insertvalue { ptr, i32 } %lpad.val, i32 %sel, 1
  resume { ptr, i32 } %lpad.val2
}